target datalayout = "e-m:e-p270:32:32-p271:32:32-p272:64:64-i64:64-i128:128-f80:128-n8:16:32:64-S128"
target triple = "x86_64-pc-linux-gnu"

%struct.AssemblyType = type { ptr, ptr, ptr, ptr, i8 }

@_ZL19assemblyHeaderIndex = internal global i32 -1, align 4
@_ZL7hexType = internal global i32 0, align 4

; Function Attrs: mustprogress nounwind uwtable
define signext i8 @checkAssemblyHeaderName(ptr noundef %0) #0 {
  %2 = alloca i8, align 1
  %3 = alloca ptr, align 8
  %4 = alloca i32, align 4
  %5 = alloca i32, align 4
  store ptr %0, ptr %3, align 8, !tbaa !17
  call void @llvm.lifetime.start.p0(i64 4, ptr %4) #13
  store i32 -1, ptr @_ZL19assemblyHeaderIndex, align 4, !tbaa !14
  store i32 0, ptr %4, align 4, !tbaa !14
  br label %6

6:                                                ; preds = %27, %1
  %7 = load i32, ptr %4, align 4, !tbaa !14
  %8 = icmp slt i32 %7, 13
  br i1 %8, label %9, label %30

9:                                                ; preds = %6
  %10 = load ptr, ptr %3, align 8, !tbaa !17
  %11 = load i32, ptr %4, align 4, !tbaa !14
  %12 = sext i32 %11 to i64
  %13 = getelementptr inbounds [13 x %struct.AssemblyType], ptr @_ZL14assemblyHeader, i64 0, i64 %12
  %14 = getelementptr inbounds nuw %struct.AssemblyType, ptr %13, i32 0, i32 0
  %15 = load ptr, ptr %14, align 8, !tbaa !23
  %16 = call i32 @strcmp(ptr noundef %10, ptr noundef %15) #16
  %17 = icmp eq i32 %16, 0
  br i1 %17, label %18, label %26

18:                                               ; preds = %9
  %19 = load i32, ptr %4, align 4, !tbaa !14
  store i32 %19, ptr @_ZL19assemblyHeaderIndex, align 4, !tbaa !14
  %20 = load i32, ptr %4, align 4, !tbaa !14
  %21 = sext i32 %20 to i64
  %22 = getelementptr inbounds [13 x %struct.AssemblyType], ptr @_ZL14assemblyHeader, i64 0, i64 %21
  %23 = getelementptr inbounds nuw %struct.AssemblyType, ptr %22, i32 0, i32 4
  %24 = load i8, ptr %23, align 8, !tbaa !25
  %25 = sext i8 %24 to i32
  store i32 %25, ptr @_ZL7hexType, align 4, !tbaa !14
  store i8 1, ptr %2, align 1
  store i32 1, ptr %5, align 4
  br label %31

26:                                               ; preds = %9
  br label %27

27:                                               ; preds = %26
  %28 = load i32, ptr %4, align 4, !tbaa !14
  %29 = add nsw i32 %28, 1
  store i32 %29, ptr %4, align 4, !tbaa !14
  br label %6, !llvm.loop !26

30:                                               ; preds = %6
  store i8 0, ptr %2, align 1
  store i32 1, ptr %5, align 4
  br label %31

31:                                               ; preds = %30, %18
  call void @llvm.lifetime.end.p0(i64 4, ptr %4) #13
  %32 = load i8, ptr %2, align 1
  ret i8 %32
}