; Function Attrs: mustprogress nofree nounwind memory(readwrite, argmem: read, inaccessiblemem: none) uwtable
define signext range(i8 0, 2) i8 @checkAssemblyHeaderName(ptr noundef readonly captures(none) %0) local_unnamed_addr #10 {
  store i32 -1, ptr @_ZL19assemblyHeaderIndex, align 4, !tbaa !12
  br label %2

2:                                                ; preds = %1, %12
  %indvars.iv = phi i64 [ 0, %1 ], [ %indvars.iv.next, %12 ]
  %3 = getelementptr inbounds nuw [13 x %struct.AssemblyType], ptr @_ZL14assemblyHeader, i64 0, i64 %indvars.iv
  %4 = load ptr, ptr %3, align 8, !tbaa !15
  %5 = tail call i32 @strcmp(ptr noundef nonnull dereferenceable(1) %0, ptr noundef nonnull dereferenceable(1) %4) #24
  %6 = icmp eq i32 %5, 0
  br i1 %6, label %7, label %12

7:                                                ; preds = %2
  %8 = trunc nuw nsw i64 %indvars.iv to i32
  store i32 %8, ptr @_ZL19assemblyHeaderIndex, align 4, !tbaa !12
  %9 = getelementptr inbounds nuw i8, ptr %3, i64 32
  %10 = load i8, ptr %9, align 8, !tbaa !17
  %11 = sext i8 %10 to i32
  store i32 %11, ptr @_ZL7hexType, align 4, !tbaa !12
  br label %.loopexit

12:                                               ; preds = %2
  %indvars.iv.next = add nuw nsw i64 %indvars.iv, 1
  %exitcond.not = icmp eq i64 %indvars.iv.next, 13
  br i1 %exitcond.not, label %.loopexit, label %2, !llvm.loop !18

.loopexit:                                        ; preds = %12, %7
  %.06 = phi i8 [ 1, %7 ], [ 0, %12 ]
  ret i8 %.06
}